EXPORTS
	_ZN11CDiagEngine14SetCustomParamEPv @ 1 NONAME
	_ZN11CDiagEngine20GetPluginDependencyLEv @ 2 NONAME
	_ZN11CDiagEngine4NewLER13CAknViewAppUiR19MDiagEngineObserverR20RDiagResultsDatabaseR15CDiagPluginPool4TUid @ 3 NONAME
	_ZN11CDiagEngine4NewLER13CAknViewAppUiR19MDiagEngineObserverR20RDiagResultsDatabaseR15CDiagPluginPooliRK6RArrayI4TUidE @ 4 NONAME
	_ZN11CDiagEngine5NewLCER13CAknViewAppUiR19MDiagEngineObserverR20RDiagResultsDatabaseR15CDiagPluginPool4TUid @ 5 NONAME
	_ZN11CDiagEngine5NewLCER13CAknViewAppUiR19MDiagEngineObserverR20RDiagResultsDatabaseR15CDiagPluginPooliRK6RArrayI4TUidE @ 6 NONAME
	_ZN11CDiagEngine7ResumeLEv @ 7 NONAME
	_ZN11CDiagEngine8ExecuteLEv @ 8 NONAME
	_ZN11CDiagEngine8SuspendLEv @ 9 NONAME
	_ZN11CDiagEngineD0Ev @ 10 NONAME
	_ZN11CDiagEngineD1Ev @ 11 NONAME
	_ZN11CDiagEngineD2Ev @ 12 NONAME
	_ZN15CDiagPluginPool10LoadAsyncLE4TUid @ 13 NONAME
	_ZN15CDiagPluginPool13CreatePluginLE4TUid @ 14 NONAME
	_ZN15CDiagPluginPool18CancelLoadPluginsLEv @ 15 NONAME
	_ZN15CDiagPluginPool4NewLER23MDiagPluginPoolObserver @ 16 NONAME
	_ZN15CDiagPluginPool5NewLCER23MDiagPluginPoolObserver @ 17 NONAME
	_ZN15CDiagPluginPoolD0Ev @ 18 NONAME
	_ZN15CDiagPluginPoolD1Ev @ 19 NONAME
	_ZN15CDiagPluginPoolD2Ev @ 20 NONAME
	_ZN18TDiagTestExecParamC1ER17MDiagTestObserverR17MDiagEngineCommon @ 21 NONAME
	_ZN18TDiagTestExecParamC2ER17MDiagTestObserverR17MDiagEngineCommon @ 22 NONAME
	_ZN19CDiagLogEventEraser10EraseLogsLEv @ 23 NONAME
	_ZN19CDiagLogEventEraser20StartAsyncEraseLogsLEv @ 24 NONAME
	_ZN19CDiagLogEventEraser4NewLER27MDiagLogEventEraserObserverP10CLogFilter @ 25 NONAME
	_ZN19CDiagLogEventEraser6FilterEv @ 26 NONAME
	_ZN19CDiagLogEventEraser9LogClientEv @ 27 NONAME
	_ZN19CDiagLogEventEraserD0Ev @ 28 NONAME
	_ZN19CDiagLogEventEraserD1Ev @ 29 NONAME
	_ZN19CDiagLogEventEraserD2Ev @ 30 NONAME
	_ZN19TDiagSuiteExecParamC1ER18MDiagSuiteObserverR17MDiagEngineCommon @ 31 NONAME
	_ZN19TDiagSuiteExecParamC2ER18MDiagSuiteObserverR17MDiagEngineCommon @ 32 NONAME
	_ZN25CDiagResultsDbItemBuilder10SetTestUidE4TUid @ 33 NONAME
	_ZN25CDiagResultsDbItemBuilder14SetTimeStartedE5TTime @ 34 NONAME
	_ZN25CDiagResultsDbItemBuilder15SetResultDetailEP17MDiagResultDetail @ 35 NONAME
	_ZN25CDiagResultsDbItemBuilder16SetTestCompletedEN24CDiagResultsDatabaseItem7TResultE @ 36 NONAME
	_ZN25CDiagResultsDbItemBuilder16SetTimeCompletedE5TTime @ 37 NONAME
	_ZN25CDiagResultsDbItemBuilder16SetWasDependencyEi @ 38 NONAME
	_ZN25CDiagResultsDbItemBuilder19CreateSimpleDbItemLE4TUidiN24CDiagResultsDatabaseItem7TResultE @ 39 NONAME
	_ZN25CDiagResultsDbItemBuilder4NewLE4TUidi @ 40 NONAME
	_ZN25CDiagResultsDbItemBuilder5NewLCE4TUidi @ 41 NONAME
	_ZN28CDiagNetworkRegStatusWatcher12StopObserverEv @ 42 NONAME
	_ZN28CDiagNetworkRegStatusWatcher13StartObserverEv @ 43 NONAME
	_ZN28CDiagNetworkRegStatusWatcher4NewLER29MDiagNetworkRegStatusObserver @ 44 NONAME
	_ZN28CDiagNetworkRegStatusWatcherD0Ev @ 45 NONAME
	_ZN28CDiagNetworkRegStatusWatcherD1Ev @ 46 NONAME
	_ZN28CDiagNetworkRegStatusWatcherD2Ev @ 47 NONAME
	_ZN28CDiagPluginConstructionParam4NewLEP7HBufC16P16CDesC16ArrayFlati4TUidS4_ @ 48 NONAME
	_ZN28CDiagPluginConstructionParam5NewLCEP7HBufC16P16CDesC16ArrayFlati4TUidS4_ @ 49 NONAME
	_ZN28CDiagPluginConstructionParamD0Ev @ 50 NONAME
	_ZN28CDiagPluginConstructionParamD1Ev @ 51 NONAME
	_ZN28CDiagPluginConstructionParamD2Ev @ 52 NONAME
	_ZNK15CDiagPluginPool10FindPluginE4TUidRP11MDiagPlugin @ 53 NONAME
	_ZNK15CDiagPluginPool10FindPluginERK7TDesC16RP11MDiagPlugin @ 54 NONAME
	_ZNK15CDiagPluginPool11FindPluginLE4TUid @ 55 NONAME
	_ZNK15CDiagPluginPool11FindPluginLERK7TDesC16 @ 56 NONAME
	_ZNK18TDiagTestExecParam6EngineEv @ 57 NONAME
	_ZNK18TDiagTestExecParam8ObserverEv @ 58 NONAME
	_ZNK19TDiagSuiteExecParam6EngineEv @ 59 NONAME
	_ZNK19TDiagSuiteExecParam8ObserverEv @ 60 NONAME
	_ZNK25CDiagResultsDbItemBuilder10TestResultEv @ 61 NONAME
	_ZNK25CDiagResultsDbItemBuilder11TimeStartedEv @ 62 NONAME
	_ZNK25CDiagResultsDbItemBuilder12ResultDetailEv @ 63 NONAME
	_ZNK25CDiagResultsDbItemBuilder13TimeCompletedEv @ 64 NONAME
	_ZNK25CDiagResultsDbItemBuilder13WasDependencyEv @ 65 NONAME
	_ZNK25CDiagResultsDbItemBuilder14GetCurrentTimeEv @ 66 NONAME
	_ZNK25CDiagResultsDbItemBuilder22ToResultsDatabaseItemLEv @ 67 NONAME
	_ZNK25CDiagResultsDbItemBuilder7TestUidEv @ 68 NONAME
	_ZNK28CDiagPluginConstructionParam15ServiceProvidedEv @ 69 NONAME
	_ZNK28CDiagPluginConstructionParam16ServicesRequiredEv @ 70 NONAME
	_ZNK28CDiagPluginConstructionParam3UidEv @ 71 NONAME
	_ZNK28CDiagPluginConstructionParam5OrderEv @ 72 NONAME
	_ZNK28CDiagPluginConstructionParam9ParentUidEv @ 73 NONAME
	_ZTI28CDiagNetworkRegStatusWatcher @ 74 NONAME ; #<TI>#
	_ZTV28CDiagNetworkRegStatusWatcher @ 75 NONAME ; #<VT>#

