EXPORTS
	??0RFotaEngineSession@@QAE@XZ @ 1 NONAME ; RFotaEngineSession::RFotaEngineSession(void)
	?Close@RFotaEngineSession@@QAEXXZ @ 2 NONAME ; void RFotaEngineSession::Close(void)
	?CurrentVersion@RFotaEngineSession@@QAEHAAVTDes16@@@Z @ 3 NONAME ; int RFotaEngineSession::CurrentVersion(class TDes16 &)
	?DeleteUpdatePackage@RFotaEngineSession@@QAEHH@Z @ 4 NONAME ; int RFotaEngineSession::DeleteUpdatePackage(int)
	?Download@RFotaEngineSession@@QAEHHABVTDesC8@@H00@Z @ 5 NONAME ; int RFotaEngineSession::Download(int, class TDesC8 const &, int, class TDesC8 const &, class TDesC8 const &)
	?DownloadAndUpdate@RFotaEngineSession@@QAEHHABVTDesC8@@H00@Z @ 6 NONAME ; int RFotaEngineSession::DownloadAndUpdate(int, class TDesC8 const &, int, class TDesC8 const &, class TDesC8 const &)
	?ExtensionInterface@RFotaEngineSession@@EAEXVTUid@@AAPAX@Z @ 7 NONAME ; void RFotaEngineSession::ExtensionInterface(class TUid, void * &)
	?GenericAlertSentL@RFotaEngineSession@@QAEXH@Z @ 8 NONAME ; void RFotaEngineSession::GenericAlertSentL(int)
	?GetResult@RFotaEngineSession@@QAEHH@Z @ 9 NONAME ; int RFotaEngineSession::GetResult(int)
	?GetState@RFotaEngineSession@@QAE?AW4TState@1@H@Z @ 10 NONAME ; enum RFotaEngineSession::TState RFotaEngineSession::GetState(int)
	?GetUpdatePackageIds@RFotaEngineSession@@QAEHAAVTDes16@@@Z @ 11 NONAME ; int RFotaEngineSession::GetUpdatePackageIds(class TDes16 &)
	?IsPackageStoreSizeAvailable@RFotaEngineSession@@QAEHH@Z @ 12 NONAME ; int RFotaEngineSession::IsPackageStoreSizeAvailable(int)
	?LastUpdate@RFotaEngineSession@@QAEHAAVTTime@@@Z @ 13 NONAME ; int RFotaEngineSession::LastUpdate(class TTime &)
	?OpenL@RFotaEngineSession@@QAEXXZ @ 14 NONAME ; void RFotaEngineSession::OpenL(void)
	?OpenUpdatePackageStore@RFotaEngineSession@@QAEHHAAPAVRWriteStream@@@Z @ 15 NONAME ; int RFotaEngineSession::OpenUpdatePackageStore(int, class RWriteStream * &)
	?ScheduledUpdateL@RFotaEngineSession@@QAEHVTFotaScheduledUpdate@@@Z @ 16 NONAME ; int RFotaEngineSession::ScheduledUpdateL(class TFotaScheduledUpdate)
	?Update@RFotaEngineSession@@QAEHHHABVTDesC8@@0@Z @ 17 NONAME ; int RFotaEngineSession::Update(int, int, class TDesC8 const &, class TDesC8 const &)
	?UpdatePackageDownloadComplete@RFotaEngineSession@@QAEXH@Z @ 18 NONAME ; void RFotaEngineSession::UpdatePackageDownloadComplete(int)
	?GetDownloadUpdatePackageSize@RFotaEngineSession@@QAEHHAAH0@Z @ 19 NONAME ; int RFotaEngineSession::GetDownloadUpdatePackageSize(int, int &, int &)
	?TryResumeDownload@RFotaEngineSession@@QAEHXZ @ 20 NONAME ; int RFotaEngineSession::TryResumeDownload(void)

