EXPORTS
	??0TDiagSuiteExecParam@@QAE@AAVMDiagSuiteObserver@@AAVMDiagEngineCommon@@@Z @ 1 NONAME ; TDiagSuiteExecParam::TDiagSuiteExecParam(class MDiagSuiteObserver &, class MDiagEngineCommon &)
	??0TDiagTestExecParam@@QAE@AAVMDiagTestObserver@@AAVMDiagEngineCommon@@@Z @ 2 NONAME ; TDiagTestExecParam::TDiagTestExecParam(class MDiagTestObserver &, class MDiagEngineCommon &)
	??1CDiagEngine@@UAE@XZ @ 3 NONAME ; CDiagEngine::~CDiagEngine(void)
	??1CDiagLogEventEraser@@UAE@XZ @ 4 NONAME ; CDiagLogEventEraser::~CDiagLogEventEraser(void)
	??1CDiagNetworkRegStatusWatcher@@UAE@XZ @ 5 NONAME ; CDiagNetworkRegStatusWatcher::~CDiagNetworkRegStatusWatcher(void)
	??1CDiagPluginConstructionParam@@UAE@XZ @ 6 NONAME ; CDiagPluginConstructionParam::~CDiagPluginConstructionParam(void)
	??1CDiagPluginPool@@UAE@XZ @ 7 NONAME ; CDiagPluginPool::~CDiagPluginPool(void)
	?CancelLoadPluginsL@CDiagPluginPool@@QAEXXZ @ 8 NONAME ; void CDiagPluginPool::CancelLoadPluginsL(void)
	?CreatePluginL@CDiagPluginPool@@SAPAVMDiagPlugin@@VTUid@@@Z @ 9 NONAME ; class MDiagPlugin * CDiagPluginPool::CreatePluginL(class TUid)
	?CreateSimpleDbItemL@CDiagResultsDbItemBuilder@@SAPAVCDiagResultsDatabaseItem@@VTUid@@HW4TResult@2@@Z @ 10 NONAME ; class CDiagResultsDatabaseItem * CDiagResultsDbItemBuilder::CreateSimpleDbItemL(class TUid, int, enum CDiagResultsDatabaseItem::TResult)
	?Engine@TDiagSuiteExecParam@@QBEAAVMDiagEngineCommon@@XZ @ 11 NONAME ; class MDiagEngineCommon & TDiagSuiteExecParam::Engine(void) const
	?Engine@TDiagTestExecParam@@QBEAAVMDiagEngineCommon@@XZ @ 12 NONAME ; class MDiagEngineCommon & TDiagTestExecParam::Engine(void) const
	?EraseLogsL@CDiagLogEventEraser@@QAEXXZ @ 13 NONAME ; void CDiagLogEventEraser::EraseLogsL(void)
	?ExecuteL@CDiagEngine@@QAEXXZ @ 14 NONAME ; void CDiagEngine::ExecuteL(void)
	?Filter@CDiagLogEventEraser@@QAEAAVCLogFilter@@XZ @ 15 NONAME ; class CLogFilter & CDiagLogEventEraser::Filter(void)
	?FindPlugin@CDiagPluginPool@@QBEHABVTDesC16@@AAPAVMDiagPlugin@@@Z @ 16 NONAME ; int CDiagPluginPool::FindPlugin(class TDesC16 const &, class MDiagPlugin * &) const
	?FindPlugin@CDiagPluginPool@@QBEHVTUid@@AAPAVMDiagPlugin@@@Z @ 17 NONAME ; int CDiagPluginPool::FindPlugin(class TUid, class MDiagPlugin * &) const
	?FindPluginL@CDiagPluginPool@@QBEAAVMDiagPlugin@@ABVTDesC16@@@Z @ 18 NONAME ; class MDiagPlugin & CDiagPluginPool::FindPluginL(class TDesC16 const &) const
	?FindPluginL@CDiagPluginPool@@QBEAAVMDiagPlugin@@VTUid@@@Z @ 19 NONAME ; class MDiagPlugin & CDiagPluginPool::FindPluginL(class TUid) const
	?GetCurrentTime@CDiagResultsDbItemBuilder@@QBE?AVTTime@@XZ @ 20 NONAME ; class TTime CDiagResultsDbItemBuilder::GetCurrentTime(void) const
	?GetPluginDependencyL@CDiagEngine@@QAEHXZ @ 21 NONAME ; int CDiagEngine::GetPluginDependencyL(void)
	?LoadAsyncL@CDiagPluginPool@@QAEXVTUid@@@Z @ 22 NONAME ; void CDiagPluginPool::LoadAsyncL(class TUid)
	?LogClient@CDiagLogEventEraser@@QAEAAVCLogClient@@XZ @ 23 NONAME ; class CLogClient & CDiagLogEventEraser::LogClient(void)
	?NewL@CDiagEngine@@SAPAV1@AAVCAknViewAppUi@@AAVMDiagEngineObserver@@AAVRDiagResultsDatabase@@AAVCDiagPluginPool@@HABV?$RArray@VTUid@@@@@Z @ 24 NONAME ; class CDiagEngine * CDiagEngine::NewL(class CAknViewAppUi &, class MDiagEngineObserver &, class RDiagResultsDatabase &, class CDiagPluginPool &, int, class RArray<class TUid> const &)
	?NewL@CDiagEngine@@SAPAV1@AAVCAknViewAppUi@@AAVMDiagEngineObserver@@AAVRDiagResultsDatabase@@AAVCDiagPluginPool@@VTUid@@@Z @ 25 NONAME ; class CDiagEngine * CDiagEngine::NewL(class CAknViewAppUi &, class MDiagEngineObserver &, class RDiagResultsDatabase &, class CDiagPluginPool &, class TUid)
	?NewL@CDiagLogEventEraser@@SAPAV1@AAVMDiagLogEventEraserObserver@@PAVCLogFilter@@@Z @ 26 NONAME ; class CDiagLogEventEraser * CDiagLogEventEraser::NewL(class MDiagLogEventEraserObserver &, class CLogFilter *)
	?NewL@CDiagNetworkRegStatusWatcher@@SAPAV1@AAVMDiagNetworkRegStatusObserver@@@Z @ 27 NONAME ; class CDiagNetworkRegStatusWatcher * CDiagNetworkRegStatusWatcher::NewL(class MDiagNetworkRegStatusObserver &)
	?NewL@CDiagPluginConstructionParam@@SAPAV1@PAVHBufC16@@PAVCDesC16ArrayFlat@@HVTUid@@2@Z @ 28 NONAME ; class CDiagPluginConstructionParam * CDiagPluginConstructionParam::NewL(class HBufC16 *, class CDesC16ArrayFlat *, int, class TUid, class TUid)
	?NewL@CDiagPluginPool@@SAPAV1@AAVMDiagPluginPoolObserver@@@Z @ 29 NONAME ; class CDiagPluginPool * CDiagPluginPool::NewL(class MDiagPluginPoolObserver &)
	?NewL@CDiagResultsDbItemBuilder@@SAPAV1@VTUid@@H@Z @ 30 NONAME ; class CDiagResultsDbItemBuilder * CDiagResultsDbItemBuilder::NewL(class TUid, int)
	?NewLC@CDiagEngine@@SAPAV1@AAVCAknViewAppUi@@AAVMDiagEngineObserver@@AAVRDiagResultsDatabase@@AAVCDiagPluginPool@@HABV?$RArray@VTUid@@@@@Z @ 31 NONAME ; class CDiagEngine * CDiagEngine::NewLC(class CAknViewAppUi &, class MDiagEngineObserver &, class RDiagResultsDatabase &, class CDiagPluginPool &, int, class RArray<class TUid> const &)
	?NewLC@CDiagEngine@@SAPAV1@AAVCAknViewAppUi@@AAVMDiagEngineObserver@@AAVRDiagResultsDatabase@@AAVCDiagPluginPool@@VTUid@@@Z @ 32 NONAME ; class CDiagEngine * CDiagEngine::NewLC(class CAknViewAppUi &, class MDiagEngineObserver &, class RDiagResultsDatabase &, class CDiagPluginPool &, class TUid)
	?NewLC@CDiagPluginConstructionParam@@SAPAV1@PAVHBufC16@@PAVCDesC16ArrayFlat@@HVTUid@@2@Z @ 33 NONAME ; class CDiagPluginConstructionParam * CDiagPluginConstructionParam::NewLC(class HBufC16 *, class CDesC16ArrayFlat *, int, class TUid, class TUid)
	?NewLC@CDiagPluginPool@@SAPAV1@AAVMDiagPluginPoolObserver@@@Z @ 34 NONAME ; class CDiagPluginPool * CDiagPluginPool::NewLC(class MDiagPluginPoolObserver &)
	?NewLC@CDiagResultsDbItemBuilder@@SAPAV1@VTUid@@H@Z @ 35 NONAME ; class CDiagResultsDbItemBuilder * CDiagResultsDbItemBuilder::NewLC(class TUid, int)
	?Observer@TDiagSuiteExecParam@@QBEAAVMDiagSuiteObserver@@XZ @ 36 NONAME ; class MDiagSuiteObserver & TDiagSuiteExecParam::Observer(void) const
	?Observer@TDiagTestExecParam@@QBEAAVMDiagTestObserver@@XZ @ 37 NONAME ; class MDiagTestObserver & TDiagTestExecParam::Observer(void) const
	?Order@CDiagPluginConstructionParam@@QBEHXZ @ 38 NONAME ; int CDiagPluginConstructionParam::Order(void) const
	?ParentUid@CDiagPluginConstructionParam@@QBE?AVTUid@@XZ @ 39 NONAME ; class TUid CDiagPluginConstructionParam::ParentUid(void) const
	?ResultDetail@CDiagResultsDbItemBuilder@@QBEAAVMDiagResultDetail@@XZ @ 40 NONAME ; class MDiagResultDetail & CDiagResultsDbItemBuilder::ResultDetail(void) const
	?ResumeL@CDiagEngine@@QAEXXZ @ 41 NONAME ; void CDiagEngine::ResumeL(void)
	?ServiceProvided@CDiagPluginConstructionParam@@QBEABVTDesC16@@XZ @ 42 NONAME ; class TDesC16 const & CDiagPluginConstructionParam::ServiceProvided(void) const
	?ServicesRequired@CDiagPluginConstructionParam@@QBEABVCDesC16ArrayFlat@@XZ @ 43 NONAME ; class CDesC16ArrayFlat const & CDiagPluginConstructionParam::ServicesRequired(void) const
	?SetCustomParam@CDiagEngine@@QAEXPAX@Z @ 44 NONAME ; void CDiagEngine::SetCustomParam(void *)
	?SetResultDetail@CDiagResultsDbItemBuilder@@QAEXPAVMDiagResultDetail@@@Z @ 45 NONAME ; void CDiagResultsDbItemBuilder::SetResultDetail(class MDiagResultDetail *)
	?SetTestCompleted@CDiagResultsDbItemBuilder@@QAEXW4TResult@CDiagResultsDatabaseItem@@@Z @ 46 NONAME ; void CDiagResultsDbItemBuilder::SetTestCompleted(enum CDiagResultsDatabaseItem::TResult)
	?SetTestUid@CDiagResultsDbItemBuilder@@QAEXVTUid@@@Z @ 47 NONAME ; void CDiagResultsDbItemBuilder::SetTestUid(class TUid)
	?SetTimeCompleted@CDiagResultsDbItemBuilder@@QAEXVTTime@@@Z @ 48 NONAME ; void CDiagResultsDbItemBuilder::SetTimeCompleted(class TTime)
	?SetTimeStarted@CDiagResultsDbItemBuilder@@QAEXVTTime@@@Z @ 49 NONAME ; void CDiagResultsDbItemBuilder::SetTimeStarted(class TTime)
	?SetWasDependency@CDiagResultsDbItemBuilder@@QAEXH@Z @ 50 NONAME ; void CDiagResultsDbItemBuilder::SetWasDependency(int)
	?StartAsyncEraseLogsL@CDiagLogEventEraser@@QAEXXZ @ 51 NONAME ; void CDiagLogEventEraser::StartAsyncEraseLogsL(void)
	?StartObserver@CDiagNetworkRegStatusWatcher@@QAEXXZ @ 52 NONAME ; void CDiagNetworkRegStatusWatcher::StartObserver(void)
	?StopObserver@CDiagNetworkRegStatusWatcher@@QAEXXZ @ 53 NONAME ; void CDiagNetworkRegStatusWatcher::StopObserver(void)
	?SuspendL@CDiagEngine@@QAEXXZ @ 54 NONAME ; void CDiagEngine::SuspendL(void)
	?TestResult@CDiagResultsDbItemBuilder@@QBE?AW4TResult@CDiagResultsDatabaseItem@@XZ @ 55 NONAME ; enum CDiagResultsDatabaseItem::TResult CDiagResultsDbItemBuilder::TestResult(void) const
	?TestUid@CDiagResultsDbItemBuilder@@QBE?AVTUid@@XZ @ 56 NONAME ; class TUid CDiagResultsDbItemBuilder::TestUid(void) const
	?TimeCompleted@CDiagResultsDbItemBuilder@@QBE?AVTTime@@XZ @ 57 NONAME ; class TTime CDiagResultsDbItemBuilder::TimeCompleted(void) const
	?TimeStarted@CDiagResultsDbItemBuilder@@QBE?AVTTime@@XZ @ 58 NONAME ; class TTime CDiagResultsDbItemBuilder::TimeStarted(void) const
	?ToResultsDatabaseItemL@CDiagResultsDbItemBuilder@@QBEPAVCDiagResultsDatabaseItem@@XZ @ 59 NONAME ; class CDiagResultsDatabaseItem * CDiagResultsDbItemBuilder::ToResultsDatabaseItemL(void) const
	?Uid@CDiagPluginConstructionParam@@QBE?AVTUid@@XZ @ 60 NONAME ; class TUid CDiagPluginConstructionParam::Uid(void) const
	?WasDependency@CDiagResultsDbItemBuilder@@QBEHXZ @ 61 NONAME ; int CDiagResultsDbItemBuilder::WasDependency(void) const

