EXPORTS
	??0RSCPClient@@QAE@XZ @ 1 NONAME ; RSCPClient::RSCPClient(void)
	??1CSCPParamObject@@UAE@XZ @ 2 NONAME ; CSCPParamObject::~CSCPParamObject(void)
	?ChangeCode@RSCPClient@@QAEHAAVTDes16@@@Z @ 3 NONAME ; int RSCPClient::ChangeCode(class TDes16 &)
	?ChangeCodeRequest@RSCPClient@@QAEHXZ @ 4 NONAME ; int RSCPClient::ChangeCodeRequest(void)
	?Connect@RSCPClient@@QAEHXZ @ 5 NONAME ; int RSCPClient::Connect(void)
	?Get@CSCPParamObject@@QAEHHAAH@Z @ 6 NONAME ; int CSCPParamObject::Get(int, int &)
	?Get@CSCPParamObject@@QAEHHAAVTDes16@@@Z @ 7 NONAME ; int CSCPParamObject::Get(int, class TDes16 &)
	?GetBuffer@CSCPParamObject@@QAEHAAPAVHBufC8@@@Z @ 8 NONAME ; int CSCPParamObject::GetBuffer(class HBufC8 * &)
	?GetCode@RSCPClient@@QAEHAAV?$TBuf@$07@@@Z @ 9 NONAME ; int RSCPClient::GetCode(class TBuf<8> &)
	?GetLockState@RSCPClient@@QAEHAAH@Z @ 10 NONAME ; int RSCPClient::GetLockState(int &)
	?GetParamLength@CSCPParamObject@@QAEHH@Z @ 11 NONAME ; int CSCPParamObject::GetParamLength(int)
	?GetParamValue@RSCPClient@@QAEHHAAVTDes16@@@Z @ 12 NONAME ; int RSCPClient::GetParamValue(int, class TDes16 &)
	?NewL@CSCPParamObject@@SAPAV1@XZ @ 13 NONAME ; class CSCPParamObject * CSCPParamObject::NewL(void)
	?NewLC@CSCPParamObject@@SAPAV1@XZ @ 14 NONAME ; class CSCPParamObject * CSCPParamObject::NewLC(void)
	?Parse@CSCPParamObject@@QAEHAAVTDes8@@@Z @ 15 NONAME ; int CSCPParamObject::Parse(class TDes8 &)
	?QueryAdminCmd@RSCPClient@@QAEHW4TSCPAdminCommand@@@Z @ 16 NONAME ; int RSCPClient::QueryAdminCmd(enum TSCPAdminCommand)
	?ReadFromFileL@CSCPParamObject@@QAEXAAVTDesC16@@PAVRFs@@@Z @ 17 NONAME ; void CSCPParamObject::ReadFromFileL(class TDesC16 &, class RFs *)
	?Reset@CSCPParamObject@@QAEHXZ @ 18 NONAME ; int CSCPParamObject::Reset(void)
	?SecCodeQuery@RSCPClient@@QAEHAAV?$TBuf@$09@@W4TSCPButtonConfig@1@HH@Z @ 19 NONAME ; int RSCPClient::SecCodeQuery(class TBuf<10> &, enum RSCPClient::TSCPButtonConfig, int, int)
	?Set@CSCPParamObject@@QAEHHAAVTDes16@@@Z @ 20 NONAME ; int CSCPParamObject::Set(int, class TDes16 &)
	?Set@CSCPParamObject@@QAEHHH@Z @ 21 NONAME ; int CSCPParamObject::Set(int, int)
	?SetParamValue@RSCPClient@@QAEHHAAVTDes16@@@Z @ 22 NONAME ; int RSCPClient::SetParamValue(int, class TDes16 &)
	?SetPhoneLock@RSCPClient@@QAEHH@Z @ 23 NONAME ; int RSCPClient::SetPhoneLock(int)
	?StoreCode@RSCPClient@@QAEHAAV?$TBuf@$07@@@Z @ 24 NONAME ; int RSCPClient::StoreCode(class TBuf<8> &)
	?Unset@CSCPParamObject@@QAEHH@Z @ 25 NONAME ; int CSCPParamObject::Unset(int)
	?Version@RSCPClient@@QBE?AVTVersion@@XZ @ 26 NONAME ; class TVersion RSCPClient::Version(void) const
	?WriteToFileL@CSCPParamObject@@QAEXAAVTDesC16@@PAVRFs@@@Z @ 27 NONAME ; void CSCPParamObject::WriteToFileL(class TDesC16 &, class RFs *)
	?CheckConfiguration@RSCPClient@@QAEHH@Z @ 28 NONAME ; int RSCPClient::CheckConfiguration(int)
	?PerformCleanupL@RSCPClient@@QAEHAAV?$RArray@VTUid@@@@@Z @ 29 NONAME ; int RSCPClient::PerformCleanupL(class RArray<class TUid> &)
	?SetParamValue@RSCPClient@@QAEHHAAVTDes16@@K@Z @ 30 NONAME ; int RSCPClient::SetParamValue(int, class TDes16 &, unsigned long)
	?SetAutoLockPeriod@RSCPClient@@QAEHH@Z @ 31 NONAME ; int RSCPClient::SetAutoLockPeriod(int)

